; Function Attrs: nounwind uwtable
define dso_local void @add_assoc_double_ex(ptr noundef readonly captures(none) %0, ptr noundef %1, i64 noundef %2, double noundef %3) local_unnamed_addr #2 {
  %5 = alloca i64, align 8
  %6 = alloca %struct._zval_struct, align 8
  call void @llvm.lifetime.start.p0(i64 16, ptr nonnull %6) #34
  store double %3, ptr %6, align 8, !tbaa !42
  %7 = getelementptr inbounds nuw i8, ptr %6, i64 8
  store i32 5, ptr %7, align 8, !tbaa !42
  %8 = load ptr, ptr %0, align 8, !tbaa !42
  call void @llvm.lifetime.start.p0(i64 8, ptr nonnull %5) #34
  %9 = load i8, ptr %1, align 1, !tbaa !42
  %10 = icmp sgt i8 %9, 57
  br i1 %10, label %_zend_handle_numeric_str.exit.thread, label %11, !prof !45

11:                                               ; preds = %4
  %12 = icmp slt i8 %9, 48
  br i1 %12, label %13, label %_zend_handle_numeric_str.exit

13:                                               ; preds = %11
  %.not.i = icmp eq i8 %9, 45
  br i1 %.not.i, label %14, label %_zend_handle_numeric_str.exit.thread

14:                                               ; preds = %13
  %15 = getelementptr inbounds nuw i8, ptr %1, i64 1
  %16 = load i8, ptr %15, align 1, !tbaa !42
  %17 = add i8 %16, -58
  %or.cond.i = icmp ult i8 %17, -10
  br i1 %or.cond.i, label %_zend_handle_numeric_str.exit.thread, label %_zend_handle_numeric_str.exit

_zend_handle_numeric_str.exit:                    ; preds = %11, %14
  %18 = call zeroext i1 @_zend_handle_numeric_str_ex(ptr noundef nonnull %1, i64 noundef %2, ptr noundef nonnull %5) #34
  br i1 %18, label %19, label %_zend_handle_numeric_str.exit.thread

19:                                               ; preds = %_zend_handle_numeric_str.exit
  %20 = load i64, ptr %5, align 8, !tbaa !73
  %21 = call ptr @zend_hash_index_update(ptr noundef %8, i64 noundef %20, ptr noundef nonnull %6) #34
  br label %zend_symtable_str_update.exit

_zend_handle_numeric_str.exit.thread:             ; preds = %14, %13, %4, %_zend_handle_numeric_str.exit
  %22 = call ptr @zend_hash_str_update(ptr noundef %8, ptr noundef nonnull %1, i64 noundef %2, ptr noundef nonnull %6) #34
  br label %zend_symtable_str_update.exit

zend_symtable_str_update.exit:                    ; preds = %19, %_zend_handle_numeric_str.exit.thread
  call void @llvm.lifetime.end.p0(i64 8, ptr nonnull %5) #34
  call void @llvm.lifetime.end.p0(i64 16, ptr nonnull %6) #34
  ret void
}